target datalayout = "e-m:e-p270:32:32-p271:32:32-p272:64:64-i64:64-i128:128-f80:128-n8:16:32:64-S128"
target triple = "x86_64-pc-linux-gnu"

%struct.UBiDiTransform = type { ptr, ptr, ptr, ptr, i32, i32, i32, ptr, i32, i32, i32 }

; Function Attrs: mustprogress uwtable
define internal noundef signext i8 @_ZL14action_reverseP14UBiDiTransformP10UErrorCode(ptr noundef %0, ptr noundef %1) #0 {
  %3 = alloca ptr, align 8
  %4 = alloca ptr, align 8
  store ptr %0, ptr %3, align 8, !tbaa !7
  store ptr %1, ptr %4, align 8, !tbaa !3
  %5 = load ptr, ptr %3, align 8, !tbaa !7
  %6 = getelementptr inbounds nuw %struct.UBiDiTransform, ptr %5, i32 0, i32 2
  %7 = load ptr, ptr %6, align 8, !tbaa !17
  %8 = load ptr, ptr %3, align 8, !tbaa !7
  %9 = getelementptr inbounds nuw %struct.UBiDiTransform, ptr %8, i32 0, i32 4
  %10 = load i32, ptr %9, align 8, !tbaa !36
  %11 = load ptr, ptr %3, align 8, !tbaa !7
  %12 = getelementptr inbounds nuw %struct.UBiDiTransform, ptr %11, i32 0, i32 3
  %13 = load ptr, ptr %12, align 8, !tbaa !31
  %14 = load ptr, ptr %3, align 8, !tbaa !7
  %15 = getelementptr inbounds nuw %struct.UBiDiTransform, ptr %14, i32 0, i32 6
  %16 = load i32, ptr %15, align 8, !tbaa !32
  %17 = load ptr, ptr %4, align 8, !tbaa !3
  %18 = call i32 @ubidi_writeReverse_77(ptr noundef %7, i32 noundef %10, ptr noundef %13, i32 noundef %16, i16 noundef zeroext 0, ptr noundef %17)
  %19 = load ptr, ptr %3, align 8, !tbaa !7
  %20 = getelementptr inbounds nuw %struct.UBiDiTransform, ptr %19, i32 0, i32 4
  %21 = load i32, ptr %20, align 8, !tbaa !36
  %22 = load ptr, ptr %3, align 8, !tbaa !7
  %23 = getelementptr inbounds nuw %struct.UBiDiTransform, ptr %22, i32 0, i32 7
  %24 = load ptr, ptr %23, align 8, !tbaa !33
  store i32 %21, ptr %24, align 4, !tbaa !19
  ret i8 1
}