; Function Attrs: mustprogress uwtable
define internal noundef signext i8 @_ZL14action_reverseP14UBiDiTransformP10UErrorCode(ptr noundef readonly captures(none) %0, ptr noundef %1) #0 {
  %3 = getelementptr inbounds nuw i8, ptr %0, i64 16
  %4 = load ptr, ptr %3, align 8, !tbaa !14
  %5 = getelementptr inbounds nuw i8, ptr %0, i64 32
  %6 = load i32, ptr %5, align 8, !tbaa !34
  %7 = getelementptr inbounds nuw i8, ptr %0, i64 24
  %8 = load ptr, ptr %7, align 8, !tbaa !29
  %9 = getelementptr inbounds nuw i8, ptr %0, i64 40
  %10 = load i32, ptr %9, align 8, !tbaa !30
  %11 = tail call i32 @ubidi_writeReverse_77(ptr noundef %4, i32 noundef %6, ptr noundef %8, i32 noundef %10, i16 noundef zeroext 0, ptr noundef %1)
  %12 = load i32, ptr %5, align 8, !tbaa !34
  %13 = getelementptr inbounds nuw i8, ptr %0, i64 48
  %14 = load ptr, ptr %13, align 8, !tbaa !31
  store i32 %12, ptr %14, align 4, !tbaa !16
  ret i8 1
}